target datalayout = "e-m:e-p270:32:32-p271:32:32-p272:64:64-i64:64-i128:128-f80:128-n8:16:32:64-S128"
target triple = "x86_64-pc-linux-gnu"

%struct.rb_data_type_struct = type { ptr, %struct.anon, ptr, ptr, i64 }
%struct.anon = type { ptr, ptr, ptr, ptr, [1 x ptr] }
%struct.RBasic = type { i64, i64 }
%struct.RFile = type { %struct.RBasic, ptr }

@ossl_ssl_type = constant %struct.rb_data_type_struct { ptr @.str, %struct.anon { ptr @ossl_ssl_mark, ptr @ossl_ssl_free, ptr null, ptr null, [1 x ptr] zeroinitializer }, ptr null, ptr null, i64 33 }, align 8
@rb_eRuntimeError = external global i64, align 8
@eSSLError = internal global i64 0, align 8
@id_i_io = internal global i64 0, align 8
@.str.267 = private unnamed_addr constant [23 x i8] c"SSL is not initialized\00", align 1
@.str.268 = private unnamed_addr constant [11 x i8] c"SSL_set_fd\00", align 1

; Function Attrs: inlinehint nounwind sspstrong uwtable
define internal i32 @ssl_started(ptr noundef %0) #4 {
  %2 = alloca ptr, align 8
  store ptr %0, ptr %2, align 8, !tbaa !10
  %3 = load ptr, ptr %2, align 8, !tbaa !10
  %4 = call ptr @SSL_get_rbio(ptr noundef %3)
  %5 = icmp ne ptr %4, null
  %6 = zext i1 %5 to i32
  ret i32 %6
}

; Function Attrs: nounwind sspstrong uwtable
define internal i64 @ossl_ssl_setup(i64 noundef %0) #0 {
  %2 = alloca i64, align 8
  %3 = alloca i64, align 8
  %4 = alloca i64, align 8
  %5 = alloca ptr, align 8
  %6 = alloca ptr, align 8
  %7 = alloca i32, align 4
  store i64 %0, ptr %3, align 8, !tbaa !14
  call void @llvm.lifetime.start.p0(i64 8, ptr %4) #20
  call void @llvm.lifetime.start.p0(i64 8, ptr %5) #20
  call void @llvm.lifetime.start.p0(i64 8, ptr %6) #20
  br label %8

8:                                                ; preds = %1
  %9 = load i64, ptr %3, align 8, !tbaa !14
  %10 = call ptr @rb_check_typeddata(i64 noundef %9, ptr noundef @ossl_ssl_type)
  store ptr %10, ptr %5, align 8, !tbaa !10
  %11 = load ptr, ptr %5, align 8, !tbaa !10
  %12 = icmp ne ptr %11, null
  br i1 %12, label %15, label %13

13:                                               ; preds = %8
  %14 = load i64, ptr @rb_eRuntimeError, align 8, !tbaa !14
  call void (i64, ptr, ...) @ossl_raise(i64 noundef %14, ptr noundef @.str.267) #22
  unreachable

15:                                               ; preds = %8
  br label %16

16:                                               ; preds = %15
  br label %17

17:                                               ; preds = %16
  %18 = load ptr, ptr %5, align 8, !tbaa !10
  %19 = call i32 @ssl_started(ptr noundef %18)
  %20 = icmp ne i32 %19, 0
  br i1 %20, label %21, label %22

21:                                               ; preds = %17
  store i64 20, ptr %2, align 8
  store i32 1, ptr %7, align 4
  br label %41

22:                                               ; preds = %17
  %23 = load i64, ptr %3, align 8, !tbaa !14
  %24 = load i64, ptr @id_i_io, align 8, !tbaa !14
  %25 = call i64 @rb_attr_get(i64 noundef %23, i64 noundef %24)
  store i64 %25, ptr %4, align 8, !tbaa !14
  %26 = load i64, ptr %4, align 8, !tbaa !14
  %27 = call i64 @rb_io_taint_check(i64 noundef %26)
  %28 = inttoptr i64 %27 to ptr
  %29 = getelementptr inbounds nuw %struct.RFile, ptr %28, i32 0, i32 1
  %30 = load ptr, ptr %29, align 8, !tbaa !101
  store ptr %30, ptr %6, align 8, !tbaa !104
  call void @rb_io_check_closed(ptr noundef %30)
  %31 = load ptr, ptr %6, align 8, !tbaa !104
  call void @rb_io_check_readable(ptr noundef %31)
  %32 = load ptr, ptr %6, align 8, !tbaa !104
  call void @rb_io_check_writable(ptr noundef %32)
  %33 = load ptr, ptr %5, align 8, !tbaa !10
  %34 = load i64, ptr %4, align 8, !tbaa !14
  %35 = call i32 @rb_io_descriptor(i64 noundef %34)
  %36 = call i32 @SSL_set_fd(ptr noundef %33, i32 noundef %35)
  %37 = icmp ne i32 %36, 0
  br i1 %37, label %40, label %38

38:                                               ; preds = %22
  %39 = load i64, ptr @eSSLError, align 8, !tbaa !14
  call void (i64, ptr, ...) @ossl_raise(i64 noundef %39, ptr noundef @.str.268) #22
  unreachable

40:                                               ; preds = %22
  store i64 20, ptr %2, align 8
  store i32 1, ptr %7, align 4
  br label %41

41:                                               ; preds = %40, %21
  call void @llvm.lifetime.end.p0(i64 8, ptr %6) #20
  call void @llvm.lifetime.end.p0(i64 8, ptr %5) #20
  call void @llvm.lifetime.end.p0(i64 8, ptr %4) #20
  %42 = load i64, ptr %2, align 8
  ret i64 %42
}