; Function Attrs: nounwind sspstrong uwtable
define internal fastcc void @ossl_ssl_setup(i64 noundef %0) unnamed_addr #0 {
  %2 = tail call ptr @rb_check_typeddata(i64 noundef %0, ptr noundef nonnull @ossl_ssl_type) #9
  %.not = icmp eq ptr %2, null
  br i1 %.not, label %3, label %5

3:                                                ; preds = %1
  %4 = load i64, ptr @rb_eRuntimeError, align 8, !tbaa !10
  tail call void (i64, ptr, ...) @ossl_raise(i64 noundef %4, ptr noundef nonnull @.str.267) #10
  unreachable

5:                                                ; preds = %1
  %6 = tail call ptr @SSL_get_rbio(ptr noundef nonnull %2) #9
  %.not11 = icmp eq ptr %6, null
  br i1 %.not11, label %7, label %18

7:                                                ; preds = %5
  %8 = load i64, ptr @id_i_io, align 8, !tbaa !10
  %9 = tail call i64 @rb_attr_get(i64 noundef %0, i64 noundef %8) #9
  %10 = tail call i64 @rb_io_taint_check(i64 noundef %9) #9
  %11 = inttoptr i64 %10 to ptr
  %12 = getelementptr inbounds nuw i8, ptr %11, i64 16
  %13 = load ptr, ptr %12, align 8, !tbaa !96
  tail call void @rb_io_check_closed(ptr noundef %13) #9
  tail call void @rb_io_check_readable(ptr noundef %13) #9
  tail call void @rb_io_check_writable(ptr noundef %13) #9
  %14 = tail call i32 @rb_io_descriptor(i64 noundef %9) #9
  %15 = tail call i32 @SSL_set_fd(ptr noundef nonnull %2, i32 noundef %14) #9
  %.not10 = icmp eq i32 %15, 0
  br i1 %.not10, label %16, label %18

16:                                               ; preds = %7
  %17 = load i64, ptr @eSSLError, align 8, !tbaa !10
  tail call void (i64, ptr, ...) @ossl_raise(i64 noundef %17, ptr noundef nonnull @.str.268) #10
  unreachable

18:                                               ; preds = %7, %5
  ret void
}